target datalayout = "e-m:e-p270:32:32-p271:32:32-p272:64:64-i64:64-i128:128-f80:128-n8:16:32:64-S128"
target triple = "x86_64-unknown-linux-gnu"

%struct.QTailQLink = type { ptr, ptr }
%struct.SCSIDiskReq = type { %struct.SCSIRequest, i64, i32, i32, i8, i8, %struct.iovec, %struct.QEMUIOVector, %struct.BlockAcctCookie }
%struct.SCSIRequest = type { ptr, ptr, ptr, i32, i32, i32, i16, i16, ptr, i64, %struct.SCSICommand, %struct.NotifierList, [252 x i8], i32, i8, i8, i8, i8, ptr, ptr, %union.anon.0 }
%struct.SCSICommand = type { [16 x i8], i32, i64, i64, i32 }
%struct.NotifierList = type { %struct.anon }
%struct.anon = type { ptr }
%union.anon.0 = type { %struct.QTailQLink }
%struct.iovec = type { ptr, i64 }
%struct.QEMUIOVector = type { ptr, i32, %union.anon.1 }
%union.anon.1 = type { %struct.anon.2 }
%struct.anon.2 = type { i32, %struct.iovec }
%struct.BlockAcctCookie = type { i64, i64, i32 }
%struct.timeval = type { i64, i64 }

@trace_events_enabled_count = external global i32, align 4
@message_with_timestamp = external global i8, align 1
@qemu_loglevel = external global i32, align 4
@_TRACE_SCSI_DISK_EMULATE_READ_DATA_DSTATE = external global i16, align 2
@.str.81 = private unnamed_addr constant [58 x i8] c"%d@%zu.%06zu:scsi_disk_emulate_read_data Read buf_len=%d\0A\00", align 1
@.str.82 = private unnamed_addr constant [45 x i8] c"scsi_disk_emulate_read_data Read buf_len=%d\0A\00", align 1

; Function Attrs: nounwind sspstrong uwtable
define internal zeroext i1 @qemu_loglevel_mask(i32 noundef %mask) #0 {
entry:
  %mask.addr = alloca i32, align 4
  store i32 %mask, ptr %mask.addr, align 4
  %0 = load i32, ptr @qemu_loglevel, align 4
  %1 = load i32, ptr %mask.addr, align 4
  %and = and i32 %0, %1
  %cmp = icmp ne i32 %and, 0
  ret i1 %cmp
}

; Function Attrs: nounwind sspstrong uwtable
define internal void @_nocheck__trace_scsi_disk_emulate_read_data(i32 noundef %buflen) #0 {
entry:
  %buflen.addr = alloca i32, align 4
  %_now = alloca %struct.timeval, align 8
  store i32 %buflen, ptr %buflen.addr, align 4
  %0 = load i32, ptr @trace_events_enabled_count, align 4
  %tobool = icmp ne i32 %0, 0
  %lnot = xor i1 %tobool, true
  %lnot1 = xor i1 %lnot, true
  %lnot.ext = zext i1 %lnot1 to i32
  %conv = sext i32 %lnot.ext to i64
  %tobool2 = icmp ne i64 %conv, 0
  br i1 %tobool2, label %land.lhs.true, label %if.end11

land.lhs.true:                                    ; preds = %entry
  %1 = load i16, ptr @_TRACE_SCSI_DISK_EMULATE_READ_DATA_DSTATE, align 2
  %conv3 = zext i16 %1 to i32
  %tobool4 = icmp ne i32 %conv3, 0
  br i1 %tobool4, label %land.lhs.true5, label %if.end11

land.lhs.true5:                                   ; preds = %land.lhs.true
  %call = call zeroext i1 @qemu_loglevel_mask(i32 noundef 32768)
  br i1 %call, label %if.then, label %if.end11

if.then:                                          ; preds = %land.lhs.true5
  %2 = load i8, ptr @message_with_timestamp, align 1
  %tobool7 = trunc i8 %2 to i1
  br i1 %tobool7, label %if.then8, label %if.else

if.then8:                                         ; preds = %if.then
  %call9 = call i32 @gettimeofday(ptr noundef %_now, ptr noundef null) #13
  %call10 = call i32 @qemu_get_thread_id()
  %tv_sec = getelementptr inbounds %struct.timeval, ptr %_now, i32 0, i32 0
  %3 = load i64, ptr %tv_sec, align 8
  %tv_usec = getelementptr inbounds %struct.timeval, ptr %_now, i32 0, i32 1
  %4 = load i64, ptr %tv_usec, align 8
  %5 = load i32, ptr %buflen.addr, align 4
  call void (ptr, ...) @qemu_log(ptr noundef @.str.81, i32 noundef %call10, i64 noundef %3, i64 noundef %4, i32 noundef %5)
  br label %if.end

if.else:                                          ; preds = %if.then
  %6 = load i32, ptr %buflen.addr, align 4
  call void (ptr, ...) @qemu_log(ptr noundef @.str.82, i32 noundef %6)
  br label %if.end

if.end:                                           ; preds = %if.else, %if.then8
  br label %if.end11

if.end11:                                         ; preds = %if.end, %land.lhs.true5, %land.lhs.true, %entry
  ret void
}

; Function Attrs: nounwind sspstrong uwtable
define internal void @trace_scsi_disk_emulate_read_data(i32 noundef %buflen) #0 {
entry:
  %buflen.addr = alloca i32, align 4
  store i32 %buflen, ptr %buflen.addr, align 4
  %0 = load i32, ptr %buflen.addr, align 4
  call void @_nocheck__trace_scsi_disk_emulate_read_data(i32 noundef %0)
  ret void
}

; Function Attrs: nounwind sspstrong uwtable
define internal void @scsi_disk_emulate_read_data(ptr noundef %req) #0 {
entry:
  %req.addr = alloca ptr, align 8
  %r = alloca ptr, align 8
  %tmp = alloca ptr, align 8
  %__mptr = alloca ptr, align 8
  %tmp1 = alloca ptr, align 8
  %buflen = alloca i32, align 4
  store ptr %req, ptr %req.addr, align 8
  %0 = load ptr, ptr %req.addr, align 8
  store ptr %0, ptr %__mptr, align 8
  %1 = load ptr, ptr %__mptr, align 8
  %add.ptr = getelementptr i8, ptr %1, i64 0
  store ptr %add.ptr, ptr %tmp1, align 8
  %2 = load ptr, ptr %tmp1, align 8
  store ptr %2, ptr %tmp, align 8
  %3 = load ptr, ptr %tmp, align 8
  store ptr %3, ptr %r, align 8
  %4 = load ptr, ptr %r, align 8
  %iov = getelementptr inbounds %struct.SCSIDiskReq, ptr %4, i32 0, i32 6
  %iov_len = getelementptr inbounds %struct.iovec, ptr %iov, i32 0, i32 1
  %5 = load i64, ptr %iov_len, align 8
  %conv = trunc i64 %5 to i32
  store i32 %conv, ptr %buflen, align 4
  %6 = load i32, ptr %buflen, align 4
  %tobool = icmp ne i32 %6, 0
  br i1 %tobool, label %if.then, label %if.end

if.then:                                          ; preds = %entry
  %7 = load i32, ptr %buflen, align 4
  call void @trace_scsi_disk_emulate_read_data(i32 noundef %7)
  %8 = load ptr, ptr %r, align 8
  %iov2 = getelementptr inbounds %struct.SCSIDiskReq, ptr %8, i32 0, i32 6
  %iov_len3 = getelementptr inbounds %struct.iovec, ptr %iov2, i32 0, i32 1
  store i64 0, ptr %iov_len3, align 8
  %9 = load ptr, ptr %r, align 8
  %started = getelementptr inbounds %struct.SCSIDiskReq, ptr %9, i32 0, i32 4
  store i8 1, ptr %started, align 8
  %10 = load ptr, ptr %r, align 8
  %req4 = getelementptr inbounds %struct.SCSIDiskReq, ptr %10, i32 0, i32 0
  %11 = load i32, ptr %buflen, align 4
  call void @scsi_req_data(ptr noundef %req4, i32 noundef %11)
  br label %return

if.end:                                           ; preds = %entry
  %12 = load ptr, ptr %r, align 8
  %req5 = getelementptr inbounds %struct.SCSIDiskReq, ptr %12, i32 0, i32 0
  call void @scsi_req_complete(ptr noundef %req5, i32 noundef 0)
  br label %return

return:                                           ; preds = %if.end, %if.then
  ret void
}