; Function Attrs: nounwind sspstrong uwtable
define internal void @scsi_disk_emulate_read_data(ptr noundef %req) #0 {
entry:
  %_now.i.i = alloca %struct.timeval, align 8
  %iov_len = getelementptr inbounds nuw i8, ptr %req, i64 440
  %0 = load i64, ptr %iov_len, align 8
  %conv = trunc i64 %0 to i32
  %tobool.not = icmp eq i32 %conv, 0
  br i1 %tobool.not, label %if.end, label %if.then

if.then:                                          ; preds = %entry
  call void @llvm.lifetime.start.p0(i64 16, ptr nonnull %_now.i.i)
  %1 = load i32, ptr @trace_events_enabled_count, align 4
  %tobool.i.i = icmp ne i32 %1, 0
  %2 = load i16, ptr @_TRACE_SCSI_DISK_EMULATE_READ_DATA_DSTATE, align 2
  %tobool4.i.i = icmp ne i16 %2, 0
  %or.cond.i.i = select i1 %tobool.i.i, i1 %tobool4.i.i, i1 false
  br i1 %or.cond.i.i, label %land.lhs.true5.i.i, label %trace_scsi_disk_emulate_read_data.exit

land.lhs.true5.i.i:                               ; preds = %if.then
  %3 = load i32, ptr @qemu_loglevel, align 4
  %and.i.i.i = and i32 %3, 32768
  %cmp.i.not.i.i = icmp eq i32 %and.i.i.i, 0
  br i1 %cmp.i.not.i.i, label %trace_scsi_disk_emulate_read_data.exit, label %if.then.i.i

if.then.i.i:                                      ; preds = %land.lhs.true5.i.i
  %4 = load i8, ptr @message_with_timestamp, align 1
  %tobool7.i.i = trunc i8 %4 to i1
  br i1 %tobool7.i.i, label %if.then8.i.i, label %if.else.i.i

if.then8.i.i:                                     ; preds = %if.then.i.i
  %call9.i.i = call i32 @gettimeofday(ptr noundef nonnull %_now.i.i, ptr noundef null) #18
  %call10.i.i = tail call i32 @qemu_get_thread_id() #18
  %5 = load i64, ptr %_now.i.i, align 8
  %tv_usec.i.i = getelementptr inbounds nuw i8, ptr %_now.i.i, i64 8
  %6 = load i64, ptr %tv_usec.i.i, align 8
  tail call void (ptr, ...) @qemu_log(ptr noundef nonnull @.str.81, i32 noundef %call10.i.i, i64 noundef %5, i64 noundef %6, i32 noundef range(i32 1, 0) %conv) #18
  br label %trace_scsi_disk_emulate_read_data.exit

if.else.i.i:                                      ; preds = %if.then.i.i
  tail call void (ptr, ...) @qemu_log(ptr noundef nonnull @.str.82, i32 noundef range(i32 1, 0) %conv) #18
  br label %trace_scsi_disk_emulate_read_data.exit

trace_scsi_disk_emulate_read_data.exit:           ; preds = %if.then, %land.lhs.true5.i.i, %if.then8.i.i, %if.else.i.i
  call void @llvm.lifetime.end.p0(i64 16, ptr nonnull %_now.i.i)
  store i64 0, ptr %iov_len, align 8
  %started = getelementptr inbounds nuw i8, ptr %req, i64 424
  store i8 1, ptr %started, align 8
  tail call void @scsi_req_data(ptr noundef nonnull %req, i32 noundef %conv) #18
  br label %return

if.end:                                           ; preds = %entry
  tail call void @scsi_req_complete(ptr noundef nonnull %req, i32 noundef 0) #18
  br label %return

return:                                           ; preds = %if.end, %trace_scsi_disk_emulate_read_data.exit
  ret void
}